; Function Attrs: nounwind uwtable
define ptr @l___private_Std_Tactic_BVDecide_LRAT_Internal_Formula_RupAddResult_0__Std_Tactic_BVDecide_LRAT_Internal_DefaultFormula_confirmRupHint_match__5_splitter___rarg(ptr noundef %0, ptr noundef %1) #0 {
  %3 = getelementptr inbounds nuw i8, ptr %0, i64 8
  %4 = getelementptr inbounds nuw i8, ptr %0, i64 16
  %5 = load ptr, ptr %4, align 8, !tbaa !4
  %6 = ptrtoint ptr %5 to i64
  %7 = and i64 %6, 1
  %.not = icmp eq i64 %7, 0
  br i1 %.not, label %8, label %lean_inc.exit25

8:                                                ; preds = %2
  %.val.i = load i32, ptr %5, align 4, !tbaa !8
  %9 = icmp sgt i32 %.val.i, 0
  br i1 %9, label %10, label %12, !prof !11

10:                                               ; preds = %8
  %11 = add nuw i32 %.val.i, 1
  store i32 %11, ptr %5, align 4, !tbaa !8
  br label %lean_inc.exit25

12:                                               ; preds = %8
  %.not.i32 = icmp eq i32 %.val.i, 0
  br i1 %.not.i32, label %lean_inc.exit25, label %13

13:                                               ; preds = %12
  tail call void @lean_inc_ref_cold(ptr noundef nonnull %5) #3
  br label %lean_inc.exit25

lean_inc.exit25:                                  ; preds = %13, %12, %10, %2
  %14 = getelementptr inbounds nuw i8, ptr %5, i64 8
  %15 = getelementptr inbounds nuw i8, ptr %5, i64 16
  %16 = load ptr, ptr %15, align 8, !tbaa !4
  %17 = ptrtoint ptr %16 to i64
  %18 = and i64 %17, 1
  %.not48 = icmp eq i64 %18, 0
  br i1 %.not48, label %19, label %lean_inc.exit24

19:                                               ; preds = %lean_inc.exit25
  %.val.i33 = load i32, ptr %16, align 4, !tbaa !8
  %20 = icmp sgt i32 %.val.i33, 0
  br i1 %20, label %21, label %23, !prof !11

21:                                               ; preds = %19
  %22 = add nuw i32 %.val.i33, 1
  store i32 %22, ptr %16, align 4, !tbaa !8
  br label %lean_inc.exit24

23:                                               ; preds = %19
  %.not.i34 = icmp eq i32 %.val.i33, 0
  br i1 %.not.i34, label %lean_inc.exit24, label %24

24:                                               ; preds = %23
  tail call void @lean_inc_ref_cold(ptr noundef nonnull %16) #3
  br label %lean_inc.exit24

lean_inc.exit24:                                  ; preds = %24, %23, %21, %lean_inc.exit25
  %25 = load ptr, ptr %3, align 8, !tbaa !4
  %26 = ptrtoint ptr %25 to i64
  %27 = and i64 %26, 1
  %.not49 = icmp eq i64 %27, 0
  br i1 %.not49, label %28, label %lean_inc.exit23

28:                                               ; preds = %lean_inc.exit24
  %.val.i36 = load i32, ptr %25, align 4, !tbaa !8
  %29 = icmp sgt i32 %.val.i36, 0
  br i1 %29, label %30, label %32, !prof !11

30:                                               ; preds = %28
  %31 = add nuw i32 %.val.i36, 1
  store i32 %31, ptr %25, align 4, !tbaa !8
  br label %lean_inc.exit23

32:                                               ; preds = %28
  %.not.i37 = icmp eq i32 %.val.i36, 0
  br i1 %.not.i37, label %lean_inc.exit23, label %33

33:                                               ; preds = %32
  tail call void @lean_inc_ref_cold(ptr noundef nonnull %25) #3
  br label %lean_inc.exit23

lean_inc.exit23:                                  ; preds = %33, %32, %30, %lean_inc.exit24
  %34 = ptrtoint ptr %0 to i64
  %35 = and i64 %34, 1
  %.not50 = icmp eq i64 %35, 0
  br i1 %.not50, label %36, label %lean_dec.exit27

36:                                               ; preds = %lean_inc.exit23
  %37 = load i32, ptr %0, align 4, !tbaa !8
  %38 = icmp sgt i32 %37, 1
  br i1 %38, label %39, label %41, !prof !11

39:                                               ; preds = %36
  %40 = add nsw i32 %37, -1
  store i32 %40, ptr %0, align 4, !tbaa !8
  br label %lean_dec.exit27

41:                                               ; preds = %36
  %.not.i = icmp eq i32 %37, 0
  br i1 %.not.i, label %lean_dec.exit27, label %42

42:                                               ; preds = %41
  tail call void @lean_dec_ref_cold(ptr noundef nonnull %0) #3
  br label %lean_dec.exit27

lean_dec.exit27:                                  ; preds = %42, %41, %39, %lean_inc.exit23
  %43 = load ptr, ptr %14, align 8, !tbaa !4
  %44 = ptrtoint ptr %43 to i64
  %45 = and i64 %44, 1
  %.not51 = icmp eq i64 %45, 0
  br i1 %.not51, label %46, label %lean_inc.exit22

46:                                               ; preds = %lean_dec.exit27
  %.val.i39 = load i32, ptr %43, align 4, !tbaa !8
  %47 = icmp sgt i32 %.val.i39, 0
  br i1 %47, label %48, label %50, !prof !11

48:                                               ; preds = %46
  %49 = add nuw i32 %.val.i39, 1
  store i32 %49, ptr %43, align 4, !tbaa !8
  br label %lean_inc.exit22

50:                                               ; preds = %46
  %.not.i40 = icmp eq i32 %.val.i39, 0
  br i1 %.not.i40, label %lean_inc.exit22, label %51

51:                                               ; preds = %50
  tail call void @lean_inc_ref_cold(ptr noundef nonnull %43) #3
  br label %lean_inc.exit22

lean_inc.exit22:                                  ; preds = %51, %50, %48, %lean_dec.exit27
  br i1 %.not, label %52, label %lean_dec.exit26

52:                                               ; preds = %lean_inc.exit22
  %53 = load i32, ptr %5, align 4, !tbaa !8
  %54 = icmp sgt i32 %53, 1
  br i1 %54, label %55, label %57, !prof !11

55:                                               ; preds = %52
  %56 = add nsw i32 %53, -1
  store i32 %56, ptr %5, align 4, !tbaa !8
  br label %lean_dec.exit26

57:                                               ; preds = %52
  %.not.i28 = icmp eq i32 %53, 0
  br i1 %.not.i28, label %lean_dec.exit26, label %58

58:                                               ; preds = %57
  tail call void @lean_dec_ref_cold(ptr noundef nonnull %5) #3
  br label %lean_dec.exit26

lean_dec.exit26:                                  ; preds = %58, %57, %55, %lean_inc.exit22
  %59 = getelementptr inbounds nuw i8, ptr %16, i64 8
  %60 = load ptr, ptr %59, align 8, !tbaa !4
  %61 = ptrtoint ptr %60 to i64
  %62 = and i64 %61, 1
  %.not52 = icmp eq i64 %62, 0
  br i1 %.not52, label %63, label %lean_inc.exit21

63:                                               ; preds = %lean_dec.exit26
  %.val.i42 = load i32, ptr %60, align 4, !tbaa !8
  %64 = icmp sgt i32 %.val.i42, 0
  br i1 %64, label %65, label %67, !prof !11

65:                                               ; preds = %63
  %66 = add nuw i32 %.val.i42, 1
  store i32 %66, ptr %60, align 4, !tbaa !8
  br label %lean_inc.exit21

67:                                               ; preds = %63
  %.not.i43 = icmp eq i32 %.val.i42, 0
  br i1 %.not.i43, label %lean_inc.exit21, label %68

68:                                               ; preds = %67
  tail call void @lean_inc_ref_cold(ptr noundef nonnull %60) #3
  br label %lean_inc.exit21

lean_inc.exit21:                                  ; preds = %68, %67, %65, %lean_dec.exit26
  %69 = getelementptr inbounds nuw i8, ptr %16, i64 16
  %70 = load ptr, ptr %69, align 8, !tbaa !4
  %71 = ptrtoint ptr %70 to i64
  %72 = and i64 %71, 1
  %.not53 = icmp eq i64 %72, 0
  br i1 %.not53, label %73, label %lean_inc.exit

73:                                               ; preds = %lean_inc.exit21
  %.val.i45 = load i32, ptr %70, align 4, !tbaa !8
  %74 = icmp sgt i32 %.val.i45, 0
  br i1 %74, label %75, label %77, !prof !11

75:                                               ; preds = %73
  %76 = add nuw i32 %.val.i45, 1
  store i32 %76, ptr %70, align 4, !tbaa !8
  br label %lean_inc.exit

77:                                               ; preds = %73
  %.not.i46 = icmp eq i32 %.val.i45, 0
  br i1 %.not.i46, label %lean_inc.exit, label %78

78:                                               ; preds = %77
  tail call void @lean_inc_ref_cold(ptr noundef nonnull %70) #3
  br label %lean_inc.exit

lean_inc.exit:                                    ; preds = %78, %77, %75, %lean_inc.exit21
  br i1 %.not48, label %79, label %lean_dec.exit

79:                                               ; preds = %lean_inc.exit
  %80 = load i32, ptr %16, align 4, !tbaa !8
  %81 = icmp sgt i32 %80, 1
  br i1 %81, label %82, label %84, !prof !11

82:                                               ; preds = %79
  %83 = add nsw i32 %80, -1
  store i32 %83, ptr %16, align 4, !tbaa !8
  br label %lean_dec.exit

84:                                               ; preds = %79
  %.not.i30 = icmp eq i32 %80, 0
  br i1 %.not.i30, label %lean_dec.exit, label %85

85:                                               ; preds = %84
  tail call void @lean_dec_ref_cold(ptr noundef nonnull %16) #3
  br label %lean_dec.exit

lean_dec.exit:                                    ; preds = %85, %84, %82, %lean_inc.exit
  %86 = tail call ptr @lean_apply_4(ptr noundef %1, ptr noundef %25, ptr noundef %43, ptr noundef %60, ptr noundef %70) #3
  ret ptr %86
}